target datalayout = "e-m:e-p270:32:32-p271:32:32-p272:64:64-i64:64-i128:128-f80:128-n8:16:32:64-S128"
target triple = "x86_64-pc-linux-gnu"

%struct.SDL_Palette = type { i32, ptr, i32, i32 }
%struct.SDL_Color = type { i8, i8, i8, i8 }

; Function Attrs: nounwind uwtable
define hidden void @SDL_DetectPalette(ptr noundef %0, ptr noundef %1, ptr noundef %2) #0 {
  %4 = alloca ptr, align 8
  %5 = alloca ptr, align 8
  %6 = alloca ptr, align 8
  %7 = alloca i32, align 4
  %8 = alloca i8, align 1
  %9 = alloca i8, align 1
  %10 = alloca i32, align 4
  %11 = alloca i8, align 1
  %12 = alloca i8, align 1
  store ptr %0, ptr %4, align 8
  store ptr %1, ptr %5, align 8
  store ptr %2, ptr %6, align 8
  call void @llvm.lifetime.start.p0(i64 4, ptr %7) #7
  call void @llvm.lifetime.start.p0(i64 1, ptr %8) #7
  store i8 1, ptr %8, align 1
  store i32 0, ptr %7, align 4
  br label %13

13:                                               ; preds = %36, %3
  %14 = load i32, ptr %7, align 4
  %15 = load ptr, ptr %4, align 8
  %16 = getelementptr inbounds nuw %struct.SDL_Palette, ptr %15, i32 0, i32 0
  %17 = load i32, ptr %16, align 8
  %18 = icmp slt i32 %14, %17
  br i1 %18, label %19, label %39

19:                                               ; preds = %13
  call void @llvm.lifetime.start.p0(i64 1, ptr %9) #7
  %20 = load ptr, ptr %4, align 8
  %21 = getelementptr inbounds nuw %struct.SDL_Palette, ptr %20, i32 0, i32 1
  %22 = load ptr, ptr %21, align 8
  %23 = load i32, ptr %7, align 4
  %24 = sext i32 %23 to i64
  %25 = getelementptr inbounds %struct.SDL_Color, ptr %22, i64 %24
  %26 = getelementptr inbounds nuw %struct.SDL_Color, ptr %25, i32 0, i32 3
  %27 = load i8, ptr %26, align 1
  store i8 %27, ptr %9, align 1
  %28 = load i8, ptr %9, align 1
  %29 = zext i8 %28 to i32
  %30 = icmp ne i32 %29, 255
  br i1 %30, label %31, label %32

31:                                               ; preds = %19
  store i8 0, ptr %8, align 1
  store i32 2, ptr %10, align 4
  br label %33

32:                                               ; preds = %19
  store i32 0, ptr %10, align 4
  br label %33

33:                                               ; preds = %32, %31
  call void @llvm.lifetime.end.p0(i64 1, ptr %9) #7
  %34 = load i32, ptr %10, align 4
  switch i32 %34, label %90 [
    i32 0, label %35
    i32 2, label %39
  ]

35:                                               ; preds = %33
  br label %36

36:                                               ; preds = %35
  %37 = load i32, ptr %7, align 4
  %38 = add nsw i32 %37, 1
  store i32 %38, ptr %7, align 4
  br label %13, !llvm.loop !16

39:                                               ; preds = %33, %13
  %40 = load i8, ptr %8, align 1, !range !12, !noundef !13
  %41 = trunc i8 %40 to i1
  br i1 %41, label %42, label %45

42:                                               ; preds = %39
  %43 = load ptr, ptr %5, align 8
  store i8 1, ptr %43, align 1
  %44 = load ptr, ptr %6, align 8
  store i8 1, ptr %44, align 1
  store i32 1, ptr %10, align 4
  br label %46

45:                                               ; preds = %39
  store i32 0, ptr %10, align 4
  br label %46

46:                                               ; preds = %45, %42
  call void @llvm.lifetime.end.p0(i64 1, ptr %8) #7
  %47 = load i32, ptr %10, align 4
  switch i32 %47, label %87 [
    i32 0, label %48
  ]

48:                                               ; preds = %46
  call void @llvm.lifetime.start.p0(i64 1, ptr %11) #7
  store i8 1, ptr %11, align 1
  store i32 0, ptr %7, align 4
  br label %49

49:                                               ; preds = %72, %48
  %50 = load i32, ptr %7, align 4
  %51 = load ptr, ptr %4, align 8
  %52 = getelementptr inbounds nuw %struct.SDL_Palette, ptr %51, i32 0, i32 0
  %53 = load i32, ptr %52, align 8
  %54 = icmp slt i32 %50, %53
  br i1 %54, label %55, label %75

55:                                               ; preds = %49
  call void @llvm.lifetime.start.p0(i64 1, ptr %12) #7
  %56 = load ptr, ptr %4, align 8
  %57 = getelementptr inbounds nuw %struct.SDL_Palette, ptr %56, i32 0, i32 1
  %58 = load ptr, ptr %57, align 8
  %59 = load i32, ptr %7, align 4
  %60 = sext i32 %59 to i64
  %61 = getelementptr inbounds %struct.SDL_Color, ptr %58, i64 %60
  %62 = getelementptr inbounds nuw %struct.SDL_Color, ptr %61, i32 0, i32 3
  %63 = load i8, ptr %62, align 1
  store i8 %63, ptr %12, align 1
  %64 = load i8, ptr %12, align 1
  %65 = zext i8 %64 to i32
  %66 = icmp ne i32 %65, 0
  br i1 %66, label %67, label %68

67:                                               ; preds = %55
  store i8 0, ptr %11, align 1
  store i32 5, ptr %10, align 4
  br label %69

68:                                               ; preds = %55
  store i32 0, ptr %10, align 4
  br label %69

69:                                               ; preds = %68, %67
  call void @llvm.lifetime.end.p0(i64 1, ptr %12) #7
  %70 = load i32, ptr %10, align 4
  switch i32 %70, label %90 [
    i32 0, label %71
    i32 5, label %75
  ]

71:                                               ; preds = %69
  br label %72

72:                                               ; preds = %71
  %73 = load i32, ptr %7, align 4
  %74 = add nsw i32 %73, 1
  store i32 %74, ptr %7, align 4
  br label %49, !llvm.loop !17

75:                                               ; preds = %69, %49
  %76 = load i8, ptr %11, align 1, !range !12, !noundef !13
  %77 = trunc i8 %76 to i1
  br i1 %77, label %78, label %81

78:                                               ; preds = %75
  %79 = load ptr, ptr %5, align 8
  store i8 1, ptr %79, align 1
  %80 = load ptr, ptr %6, align 8
  store i8 0, ptr %80, align 1
  store i32 1, ptr %10, align 4
  br label %82

81:                                               ; preds = %75
  store i32 0, ptr %10, align 4
  br label %82

82:                                               ; preds = %81, %78
  call void @llvm.lifetime.end.p0(i64 1, ptr %11) #7
  %83 = load i32, ptr %10, align 4
  switch i32 %83, label %87 [
    i32 0, label %84
  ]

84:                                               ; preds = %82
  %85 = load ptr, ptr %5, align 8
  store i8 0, ptr %85, align 1
  %86 = load ptr, ptr %6, align 8
  store i8 1, ptr %86, align 1
  store i32 0, ptr %10, align 4
  br label %87

87:                                               ; preds = %84, %82, %46
  call void @llvm.lifetime.end.p0(i64 4, ptr %7) #7
  %88 = load i32, ptr %10, align 4
  switch i32 %88, label %90 [
    i32 0, label %89
    i32 1, label %89
  ]

89:                                               ; preds = %87, %87
  ret void

90:                                               ; preds = %87, %69, %33
  unreachable
}