; Function Attrs: nofree norecurse nosync nounwind memory(read, argmem: readwrite, inaccessiblemem: none) uwtable
define hidden void @SDL_DetectPalette(ptr noundef readonly captures(none) %0, ptr noundef writeonly captures(none) %1, ptr noundef writeonly captures(none) %2) local_unnamed_addr #11 {
  %4 = load i32, ptr %0, align 8
  %.not3643 = icmp sgt i32 %4, 0
  br i1 %.not3643, label %.lr.ph, label %.critedge39

.lr.ph:                                           ; preds = %3
  %5 = getelementptr inbounds nuw i8, ptr %0, i64 8
  %6 = load ptr, ptr %5, align 8
  %wide.trip.count = zext nneg i32 %4 to i64
  br label %8

7:                                                ; preds = %8
  %indvars.iv.next = add nuw nsw i64 %indvars.iv, 1
  %exitcond.not = icmp eq i64 %indvars.iv.next, %wide.trip.count
  br i1 %exitcond.not, label %.critedge39, label %8, !llvm.loop !14

8:                                                ; preds = %.lr.ph, %7
  %indvars.iv = phi i64 [ 0, %.lr.ph ], [ %indvars.iv.next, %7 ]
  %9 = getelementptr inbounds nuw %struct.SDL_Color, ptr %6, i64 %indvars.iv, i32 3
  %10 = load i8, ptr %9, align 1
  %.not = icmp eq i8 %10, -1
  br i1 %.not, label %7, label %.lr.ph47

.critedge:                                        ; preds = %.lr.ph47
  %indvars.iv.next50 = add nuw nsw i64 %indvars.iv49, 1
  %exitcond53.not = icmp eq i64 %indvars.iv.next50, %wide.trip.count
  br i1 %exitcond53.not, label %.critedge39, label %.lr.ph47, !llvm.loop !15

.lr.ph47:                                         ; preds = %8, %.critedge
  %indvars.iv49 = phi i64 [ %indvars.iv.next50, %.critedge ], [ 0, %8 ]
  %11 = getelementptr inbounds nuw %struct.SDL_Color, ptr %6, i64 %indvars.iv49, i32 3
  %12 = load i8, ptr %11, align 1
  %.not32 = icmp eq i8 %12, 0
  br i1 %.not32, label %.critedge, label %.critedge39

.critedge39:                                      ; preds = %7, %.lr.ph47, %.critedge, %3
  %.sink54 = phi i8 [ 1, %3 ], [ 1, %.critedge ], [ 0, %.lr.ph47 ], [ 1, %7 ]
  %.sink = phi i8 [ 1, %3 ], [ 0, %.critedge ], [ 1, %.lr.ph47 ], [ 1, %7 ]
  store i8 %.sink54, ptr %1, align 1
  store i8 %.sink, ptr %2, align 1
  ret void
}